; Function Attrs: nounwind sspstrong uwtable
define internal noundef i64 @rb_digest_base_copy(i64 noundef returned %0, i64 noundef %1) #0 {
  %3 = icmp eq i64 %0, %1
  br i1 %3, label %28, label %4

4:                                                ; preds = %2
  %5 = icmp eq i64 %0, 0
  %6 = and i64 %0, 7
  %7 = icmp ne i64 %6, 0
  %8 = or i1 %5, %7
  br i1 %8, label %RB_OBJ_FROZEN.exit.thread.i, label %RB_FL_ABLE.exit.i.i, !prof !59

RB_FL_ABLE.exit.i.i:                              ; preds = %4
  %9 = inttoptr i64 %0 to ptr
  %10 = load i64, ptr %9, align 8, !tbaa !10
  %11 = and i64 %10, 31
  %.not.i.i = icmp eq i64 %11, 27
  %12 = and i64 %10, 2048
  %13 = icmp ne i64 %12, 0
  %or.cond.i = or i1 %.not.i.i, %13
  br i1 %or.cond.i, label %RB_OBJ_FROZEN.exit.thread.i, label %rbimpl_RB_TYPE_P_fastpath.exit.i, !prof !60

RB_OBJ_FROZEN.exit.thread.i:                      ; preds = %RB_FL_ABLE.exit.i.i, %4
  tail call void @rb_error_frozen_object(i64 noundef %0) #10
  unreachable

rbimpl_RB_TYPE_P_fastpath.exit.i:                 ; preds = %RB_FL_ABLE.exit.i.i
  %14 = icmp ne i64 %11, 5
  %15 = and i64 %10, 49152
  %.not.i = icmp eq i64 %15, 0
  %or.cond8.i = or i1 %14, %.not.i
  br i1 %or.cond8.i, label %rb_check_frozen_inline.exit, label %16, !prof !61

16:                                               ; preds = %rbimpl_RB_TYPE_P_fastpath.exit.i
  tail call void @rb_str_modify(i64 noundef %0) #9
  br label %rb_check_frozen_inline.exit

rb_check_frozen_inline.exit:                      ; preds = %rbimpl_RB_TYPE_P_fastpath.exit.i, %16
  %17 = tail call i64 @rb_obj_class(i64 noundef %0) #9
  %18 = tail call fastcc nonnull ptr @get_digest_base_metadata(i64 noundef %17)
  %19 = tail call i64 @rb_obj_class(i64 noundef %1) #9
  %20 = tail call fastcc nonnull ptr @get_digest_base_metadata(i64 noundef %19)
  %.not = icmp eq ptr %18, %20
  br i1 %.not, label %23, label %21

21:                                               ; preds = %rb_check_frozen_inline.exit
  %22 = load i64, ptr @rb_eTypeError, align 8, !tbaa !6
  tail call void (i64, ptr, ...) @rb_raise(i64 noundef %22, ptr noundef nonnull @.str.38) #10
  unreachable

23:                                               ; preds = %rb_check_frozen_inline.exit
  %24 = tail call ptr @rb_check_typeddata(i64 noundef %1, ptr noundef nonnull @digest_type) #9
  %25 = tail call ptr @rb_check_typeddata(i64 noundef %0, ptr noundef nonnull @digest_type) #9
  %26 = getelementptr inbounds nuw i8, ptr %18, i64 24
  %27 = load i64, ptr %26, align 8, !tbaa !52
  tail call void @llvm.memcpy.p0.p0.i64(ptr noundef nonnull align 1 %25, ptr noundef nonnull align 1 %24, i64 noundef %27, i1 noundef false) #9
  br label %28

28:                                               ; preds = %2, %23
  ret i64 %0
}